; Function Attrs: mustprogress nofree norecurse nosync nounwind willreturn memory(argmem: readwrite) uwtable
define noundef signext i8 @_ZNK6icu_759ScriptSet4testE11UScriptCodeR10UErrorCode(ptr nocapture noundef nonnull readonly align 4 dereferenceable(28) %this, i32 noundef %script, ptr nocapture noundef nonnull align 4 dereferenceable(4) %status) local_unnamed_addr #3 align 2 {
entry:
  %0 = load i32, ptr %status, align 4
  %cmp.i = icmp slt i32 %0, 1
  br i1 %cmp.i, label %if.end, label %return

if.end:                                           ; preds = %entry
  %or.cond = icmp ugt i32 %script, 223
  br i1 %or.cond, label %if.then3, label %if.end4

if.then3:                                         ; preds = %if.end
  store i32 1, ptr %status, align 4
  br label %return

if.end4:                                          ; preds = %if.end
  %div5 = lshr i32 %script, 5
  %and = and i32 %script, 31
  %shl = shl nuw i32 1, %and
  %idxprom = zext nneg i32 %div5 to i64
  %arrayidx = getelementptr inbounds [7 x i32], ptr %this, i64 0, i64 %idxprom
  %1 = load i32, ptr %arrayidx, align 4
  %and5 = and i32 %1, %shl
  %cmp6 = icmp ne i32 %and5, 0
  %conv = zext i1 %cmp6 to i8
  br label %return

return:                                           ; preds = %entry, %if.end4, %if.then3
  %retval.0 = phi i8 [ 0, %if.then3 ], [ %conv, %if.end4 ], [ 0, %entry ]
  ret i8 %retval.0
}